target datalayout = "e-m:e-p270:32:32-p271:32:32-p272:64:64-i64:64-i128:128-f80:128-n8:16:32:64-S128"
target triple = "x86_64-pc-linux-gnu"

%"class.llvm::StringRef" = type { ptr, i64 }
%"class.llvm::opt::OptSpecifier" = type { i32 }
%"class.llvm::SmallVectorBase" = type { ptr, i32, i32 }
%"class.llvm::opt::Arg" = type { %"class.llvm::opt::Option", ptr, %"class.llvm::StringRef", i32, i8, %"class.llvm::SmallVector.29", %"class.std::unique_ptr.34" }
%"class.llvm::opt::Option" = type { ptr, ptr }
%"class.llvm::SmallVector.29" = type { %"class.llvm::SmallVectorImpl.30", %"struct.llvm::SmallVectorStorage.33" }
%"class.llvm::SmallVectorImpl.30" = type { %"class.llvm::SmallVectorTemplateBase.31" }
%"class.llvm::SmallVectorTemplateBase.31" = type { %"class.llvm::SmallVectorTemplateCommon.32" }
%"class.llvm::SmallVectorTemplateCommon.32" = type { %"class.llvm::SmallVectorBase" }
%"struct.llvm::SmallVectorStorage.33" = type { [16 x i8] }
%"class.std::unique_ptr.34" = type { %"struct.std::__uniq_ptr_data.35" }
%"struct.std::__uniq_ptr_data.35" = type { %"class.std::__uniq_ptr_impl.36" }
%"class.std::__uniq_ptr_impl.36" = type { %"class.std::tuple.37" }
%"class.std::tuple.37" = type { %"struct.std::_Tuple_impl.38" }
%"struct.std::_Tuple_impl.38" = type { %"struct.std::_Head_base.41" }
%"struct.std::_Head_base.41" = type { ptr }

; Function Attrs: mustprogress nounwind uwtable
define linkonce_odr hidden void @_ZN4llvm3opt12OptSpecifierC2Ej(ptr noundef nonnull align 4 dereferenceable(4) %0, i32 noundef %1) unnamed_addr #0 comdat align 2 {
  %3 = alloca ptr, align 8
  %4 = alloca i32, align 4
  store ptr %0, ptr %3, align 8
  store i32 %1, ptr %4, align 4
  %5 = load ptr, ptr %3, align 8
  %6 = getelementptr inbounds nuw %"class.llvm::opt::OptSpecifier", ptr %5, i32 0, i32 0
  %7 = load i32, ptr %4, align 4
  store i32 %7, ptr %6, align 4
  ret void
}

; Function Attrs: mustprogress nounwind uwtable
define linkonce_odr hidden noundef nonnull align 8 dereferenceable(16) ptr @_ZNK4llvm3opt3Arg9getOptionEv(ptr noundef nonnull align 8 dereferenceable(88) %0) #0 comdat align 2 {
  %2 = alloca ptr, align 8
  store ptr %0, ptr %2, align 8
  %3 = load ptr, ptr %2, align 8
  %4 = getelementptr inbounds nuw %"class.llvm::opt::Arg", ptr %3, i32 0, i32 0
  ret ptr %4
}

; Function Attrs: mustprogress nounwind uwtable
define dso_local noundef i32 @_ZN5clang6driver5tools20debugLevelToInfoKindERKN4llvm3opt3ArgE(ptr noundef nonnull align 8 dereferenceable(88) %0) #0 {
  %2 = alloca i32, align 4
  %3 = alloca ptr, align 8
  %4 = alloca %"class.llvm::opt::OptSpecifier", align 4
  %5 = alloca %"class.llvm::opt::OptSpecifier", align 4
  %6 = alloca %"class.llvm::opt::OptSpecifier", align 4
  %7 = alloca %"class.llvm::opt::OptSpecifier", align 4
  %8 = alloca %"class.llvm::opt::OptSpecifier", align 4
  store ptr %0, ptr %3, align 8
  %9 = load ptr, ptr %3, align 8
  %10 = call noundef nonnull align 8 dereferenceable(16) ptr @_ZNK4llvm3opt3Arg9getOptionEv(ptr noundef nonnull align 8 dereferenceable(88) %9)
  call void @_ZN4llvm3opt12OptSpecifierC2Ej(ptr noundef nonnull align 4 dereferenceable(4) %4, i32 noundef 1898)
  %11 = getelementptr inbounds nuw %"class.llvm::opt::OptSpecifier", ptr %4, i32 0, i32 0
  %12 = load i32, ptr %11, align 4
  %13 = call noundef zeroext i1 @_ZNK4llvm3opt6Option7matchesENS0_12OptSpecifierE(ptr noundef nonnull align 8 dereferenceable(16) %10, i32 %12)
  br i1 %13, label %20, label %14

14:                                               ; preds = %1
  %15 = load ptr, ptr %3, align 8
  %16 = call noundef nonnull align 8 dereferenceable(16) ptr @_ZNK4llvm3opt3Arg9getOptionEv(ptr noundef nonnull align 8 dereferenceable(88) %15)
  call void @_ZN4llvm3opt12OptSpecifierC2Ej(ptr noundef nonnull align 4 dereferenceable(4) %5, i32 noundef 1932)
  %17 = getelementptr inbounds nuw %"class.llvm::opt::OptSpecifier", ptr %5, i32 0, i32 0
  %18 = load i32, ptr %17, align 4
  %19 = call noundef zeroext i1 @_ZNK4llvm3opt6Option7matchesENS0_12OptSpecifierE(ptr noundef nonnull align 8 dereferenceable(16) %16, i32 %18)
  br i1 %19, label %20, label %21

20:                                               ; preds = %14, %1
  store i32 0, ptr %2, align 4
  br label %42

21:                                               ; preds = %14
  %22 = load ptr, ptr %3, align 8
  %23 = call noundef nonnull align 8 dereferenceable(16) ptr @_ZNK4llvm3opt3Arg9getOptionEv(ptr noundef nonnull align 8 dereferenceable(88) %22)
  call void @_ZN4llvm3opt12OptSpecifierC2Ej(ptr noundef nonnull align 4 dereferenceable(4) %6, i32 noundef 1943)
  %24 = getelementptr inbounds nuw %"class.llvm::opt::OptSpecifier", ptr %6, i32 0, i32 0
  %25 = load i32, ptr %24, align 4
  %26 = call noundef zeroext i1 @_ZNK4llvm3opt6Option7matchesENS0_12OptSpecifierE(ptr noundef nonnull align 8 dereferenceable(16) %23, i32 %25)
  br i1 %26, label %33, label %27

27:                                               ; preds = %21
  %28 = load ptr, ptr %3, align 8
  %29 = call noundef nonnull align 8 dereferenceable(16) ptr @_ZNK4llvm3opt3Arg9getOptionEv(ptr noundef nonnull align 8 dereferenceable(88) %28)
  call void @_ZN4llvm3opt12OptSpecifierC2Ej(ptr noundef nonnull align 4 dereferenceable(4) %7, i32 noundef 1933)
  %30 = getelementptr inbounds nuw %"class.llvm::opt::OptSpecifier", ptr %7, i32 0, i32 0
  %31 = load i32, ptr %30, align 4
  %32 = call noundef zeroext i1 @_ZNK4llvm3opt6Option7matchesENS0_12OptSpecifierE(ptr noundef nonnull align 8 dereferenceable(16) %29, i32 %31)
  br i1 %32, label %33, label %34

33:                                               ; preds = %27, %21
  store i32 3, ptr %2, align 4
  br label %42

34:                                               ; preds = %27
  %35 = load ptr, ptr %3, align 8
  %36 = call noundef nonnull align 8 dereferenceable(16) ptr @_ZNK4llvm3opt3Arg9getOptionEv(ptr noundef nonnull align 8 dereferenceable(88) %35)
  call void @_ZN4llvm3opt12OptSpecifierC2Ej(ptr noundef nonnull align 4 dereferenceable(4) %8, i32 noundef 1942)
  %37 = getelementptr inbounds nuw %"class.llvm::opt::OptSpecifier", ptr %8, i32 0, i32 0
  %38 = load i32, ptr %37, align 4
  %39 = call noundef zeroext i1 @_ZNK4llvm3opt6Option7matchesENS0_12OptSpecifierE(ptr noundef nonnull align 8 dereferenceable(16) %36, i32 %38)
  br i1 %39, label %40, label %41

40:                                               ; preds = %34
  store i32 2, ptr %2, align 4
  br label %42

41:                                               ; preds = %34
  store i32 4, ptr %2, align 4
  br label %42

42:                                               ; preds = %41, %40, %33, %20
  %43 = load i32, ptr %2, align 4
  ret i32 %43
}