; Function Attrs: mustprogress nounwind uwtable
define dso_local noundef range(i32 0, 5) i32 @_ZN5clang6driver5tools20debugLevelToInfoKindERKN4llvm3opt3ArgE(ptr noundef nonnull align 8 dereferenceable(88) %0) local_unnamed_addr #0 {
  %2 = tail call noundef zeroext i1 @_ZNK4llvm3opt6Option7matchesENS0_12OptSpecifierE(ptr noundef nonnull align 8 dereferenceable(16) %0, i32 1898) #21
  br i1 %2, label %11, label %3

3:                                                ; preds = %1
  %4 = tail call noundef zeroext i1 @_ZNK4llvm3opt6Option7matchesENS0_12OptSpecifierE(ptr noundef nonnull align 8 dereferenceable(16) %0, i32 1932) #21
  br i1 %4, label %11, label %5

5:                                                ; preds = %3
  %6 = tail call noundef zeroext i1 @_ZNK4llvm3opt6Option7matchesENS0_12OptSpecifierE(ptr noundef nonnull align 8 dereferenceable(16) %0, i32 1943) #21
  br i1 %6, label %11, label %7

7:                                                ; preds = %5
  %8 = tail call noundef zeroext i1 @_ZNK4llvm3opt6Option7matchesENS0_12OptSpecifierE(ptr noundef nonnull align 8 dereferenceable(16) %0, i32 1933) #21
  br i1 %8, label %11, label %9

9:                                                ; preds = %7
  %10 = tail call noundef zeroext i1 @_ZNK4llvm3opt6Option7matchesENS0_12OptSpecifierE(ptr noundef nonnull align 8 dereferenceable(16) %0, i32 1942) #21
  %. = select i1 %10, i32 2, i32 4
  br label %11

11:                                               ; preds = %9, %5, %7, %1, %3
  %.0 = phi i32 [ 0, %3 ], [ 0, %1 ], [ 3, %7 ], [ 3, %5 ], [ %., %9 ]
  ret i32 %.0
}